target datalayout = "e-m:e-p270:32:32-p271:32:32-p272:64:64-i64:64-i128:128-f80:128-n8:16:32:64-S128"
target triple = "x86_64-pc-linux-gnu"

%"class.spacer::(anonymous namespace)::mbc_rewriter_cfg" = type <{ ptr, ptr, ptr, ptr, %class.model_evaluator, ptr, i32, [4 x i8] }>
%class.model_evaluator = type { ptr }
%class.rewriter_tpl = type { %class.rewriter_core, ptr, i32, %class.ptr_vector.62, %class.var_shifter, %class.inv_var_shifter, %class.obj_ref, %class.obj_ref.74, %class.obj_ref.74, %class.svector.17 }
%class.rewriter_core = type { ptr, ptr, i8, i8, %class.ptr_vector.58, ptr, %class.svector.60, %class.ref_vector, %class.ptr_vector.58, ptr, %class.ref_vector.64, %class.obj_hashtable, ptr, i32, %class.svector.72 }
%class.svector.60 = type { %class.vector.61 }
%class.vector.61 = type { ptr }
%class.ref_vector = type { %class.ref_vector_core }
%class.ref_vector_core = type { %class.ref_manager_wrapper, %class.ptr_vector.62 }
%class.ref_manager_wrapper = type { ptr }
%class.ptr_vector.58 = type { %class.vector.59 }
%class.vector.59 = type { ptr }
%class.ref_vector.64 = type { %class.ref_vector_core.65 }
%class.ref_vector_core.65 = type { %class.ref_manager_wrapper.66, %class.ptr_vector.67 }
%class.ref_manager_wrapper.66 = type { ptr }
%class.ptr_vector.67 = type { %class.vector.68 }
%class.vector.68 = type { ptr }
%class.obj_hashtable = type { %class.core_hashtable.base.71, [4 x i8] }
%class.core_hashtable.base.71 = type <{ ptr, i32, i32, i32 }>
%class.svector.72 = type { %class.vector.73 }
%class.vector.73 = type { ptr }
%class.ptr_vector.62 = type { %class.vector.63 }
%class.vector.63 = type { ptr }
%class.var_shifter = type <{ %class.var_shifter_core, i32, i32, i32, [4 x i8] }>
%class.var_shifter_core = type { %class.rewriter_core }
%class.inv_var_shifter = type <{ %class.var_shifter_core, i32, [4 x i8] }>
%class.obj_ref = type { ptr, ptr }
%class.obj_ref.74 = type { ptr, ptr }
%class.svector.17 = type { %class.vector.18 }
%class.vector.18 = type { ptr }

; Function Attrs: mustprogress nounwind uwtable
define internal void @_ZN6spacer12_GLOBAL__N_116mbc_rewriter_cfg15reset_partitionEv(ptr noundef nonnull align 8 dereferenceable(52) %0) #4 align 2 {
  %2 = alloca ptr, align 8
  store ptr %0, ptr %2, align 8, !tbaa !29
  %3 = load ptr, ptr %2, align 8
  %4 = getelementptr inbounds nuw %"class.spacer::(anonymous namespace)::mbc_rewriter_cfg", ptr %3, i32 0, i32 6
  store i32 -1, ptr %4, align 8, !tbaa !36
  ret void
}

; Function Attrs: mustprogress nounwind uwtable
define linkonce_odr hidden void @_ZN6vectorIjLb0EjE5resetEv(ptr noundef nonnull align 8 dereferenceable(8) %0) #4 comdat align 2 {
  %2 = alloca ptr, align 8
  store ptr %0, ptr %2, align 8, !tbaa !162
  %3 = load ptr, ptr %2, align 8
  %4 = getelementptr inbounds nuw %class.vector.18, ptr %3, i32 0, i32 0
  %5 = load ptr, ptr %4, align 8, !tbaa !168
  %6 = icmp ne ptr %5, null
  br i1 %6, label %7, label %11

7:                                                ; preds = %1
  %8 = getelementptr inbounds nuw %class.vector.18, ptr %3, i32 0, i32 0
  %9 = load ptr, ptr %8, align 8, !tbaa !168
  %10 = getelementptr inbounds i32, ptr %9, i64 -1
  store i32 0, ptr %10, align 4, !tbaa !92
  br label %11

11:                                               ; preds = %7, %1
  ret void
}

; Function Attrs: mustprogress nounwind uwtable
define linkonce_odr hidden void @_ZN6vectorIP4exprLb0EjE5resetEv(ptr noundef nonnull align 8 dereferenceable(8) %0) #4 comdat align 2 {
  %2 = alloca ptr, align 8
  store ptr %0, ptr %2, align 8, !tbaa !166
  %3 = load ptr, ptr %2, align 8
  %4 = getelementptr inbounds nuw %class.vector.63, ptr %3, i32 0, i32 0
  %5 = load ptr, ptr %4, align 8, !tbaa !175
  %6 = icmp ne ptr %5, null
  br i1 %6, label %7, label %11

7:                                                ; preds = %1
  %8 = getelementptr inbounds nuw %class.vector.63, ptr %3, i32 0, i32 0
  %9 = load ptr, ptr %8, align 8, !tbaa !175
  %10 = getelementptr inbounds i32, ptr %9, i64 -1
  store i32 0, ptr %10, align 4, !tbaa !92
  br label %11

11:                                               ; preds = %7, %1
  ret void
}

; Function Attrs: mustprogress uwtable
define internal void @_ZN6spacer12_GLOBAL__N_116mbc_rewriter_cfg5resetEv(ptr noundef nonnull align 8 dereferenceable(52) %0) #5 align 2 {
  %2 = alloca ptr, align 8
  store ptr %0, ptr %2, align 8, !tbaa !29
  %3 = load ptr, ptr %2, align 8
  call void @_ZN6spacer12_GLOBAL__N_116mbc_rewriter_cfg15reset_partitionEv(ptr noundef nonnull align 8 dereferenceable(52) %3)
  ret void
}

; Function Attrs: mustprogress uwtable
define internal void @_ZN12rewriter_tplIN6spacer12_GLOBAL__N_116mbc_rewriter_cfgEE5resetEv(ptr noundef nonnull align 8 dereferenceable(536) %0) #5 align 2 {
  %2 = alloca ptr, align 8
  store ptr %0, ptr %2, align 8, !tbaa !37
  %3 = load ptr, ptr %2, align 8
  %4 = getelementptr inbounds nuw %class.rewriter_tpl, ptr %3, i32 0, i32 1
  %5 = load ptr, ptr %4, align 8, !tbaa !91
  call void @_ZN6spacer12_GLOBAL__N_116mbc_rewriter_cfg5resetEv(ptr noundef nonnull align 8 dereferenceable(52) %5)
  call void @_ZN13rewriter_core5resetEv(ptr noundef nonnull align 8 dereferenceable(144) %3)
  %6 = getelementptr inbounds nuw %class.rewriter_tpl, ptr %3, i32 0, i32 3
  call void @_ZN6vectorIP4exprLb0EjE5resetEv(ptr noundef nonnull align 8 dereferenceable(8) %6)
  %7 = getelementptr inbounds nuw %class.rewriter_tpl, ptr %3, i32 0, i32 9
  call void @_ZN6vectorIjLb0EjE5resetEv(ptr noundef nonnull align 8 dereferenceable(8) %7)
  %8 = getelementptr inbounds nuw %class.rewriter_tpl, ptr %3, i32 0, i32 4
  call void @_ZN13rewriter_core5resetEv(ptr noundef nonnull align 8 dereferenceable(144) %8)
  %9 = getelementptr inbounds nuw %class.rewriter_tpl, ptr %3, i32 0, i32 5
  call void @_ZN13rewriter_core5resetEv(ptr noundef nonnull align 8 dereferenceable(144) %9)
  ret void
}