; Function Attrs: mustprogress uwtable
define internal fastcc void @_ZN12rewriter_tplIN6spacer12_GLOBAL__N_116mbc_rewriter_cfgEE5resetEv(ptr noundef nonnull align 8 dereferenceable(536) %0) unnamed_addr #4 align 2 {
  %2 = getelementptr inbounds nuw i8, ptr %0, i64 144
  %3 = load ptr, ptr %2, align 8, !tbaa !147
  %4 = getelementptr inbounds nuw i8, ptr %3, i64 48
  store i32 -1, ptr %4, align 8, !tbaa !95
  tail call void @_ZN13rewriter_core5resetEv(ptr noundef nonnull align 8 dereferenceable(144) %0)
  %5 = getelementptr inbounds nuw i8, ptr %0, i64 160
  %6 = load ptr, ptr %5, align 8, !tbaa !137
  %.not.i = icmp eq ptr %6, null
  br i1 %.not.i, label %_ZN6vectorIP4exprLb0EjE5resetEv.exit, label %7

7:                                                ; preds = %1
  %8 = getelementptr inbounds i8, ptr %6, i64 -4
  store i32 0, ptr %8, align 4, !tbaa !145
  br label %_ZN6vectorIP4exprLb0EjE5resetEv.exit

_ZN6vectorIP4exprLb0EjE5resetEv.exit:             ; preds = %1, %7
  %9 = getelementptr inbounds nuw i8, ptr %0, i64 528
  %10 = load ptr, ptr %9, align 8, !tbaa !144
  %.not.i1 = icmp eq ptr %10, null
  br i1 %.not.i1, label %_ZN6vectorIjLb0EjE5resetEv.exit, label %11

11:                                               ; preds = %_ZN6vectorIP4exprLb0EjE5resetEv.exit
  %12 = getelementptr inbounds i8, ptr %10, i64 -4
  store i32 0, ptr %12, align 4, !tbaa !145
  br label %_ZN6vectorIjLb0EjE5resetEv.exit

_ZN6vectorIjLb0EjE5resetEv.exit:                  ; preds = %_ZN6vectorIP4exprLb0EjE5resetEv.exit, %11
  %13 = getelementptr inbounds nuw i8, ptr %0, i64 168
  tail call void @_ZN13rewriter_core5resetEv(ptr noundef nonnull align 8 dereferenceable(144) %13)
  %14 = getelementptr inbounds nuw i8, ptr %0, i64 328
  tail call void @_ZN13rewriter_core5resetEv(ptr noundef nonnull align 8 dereferenceable(144) %14)
  ret void
}